target datalayout = "e-m:e-p270:32:32-p271:32:32-p272:64:64-i64:64-i128:128-f80:128-n8:16:32:64-S128"
target triple = "x86_64-unknown-linux-gnu"

%struct.ecc_point = type { [1 x %struct.sp_int], [1 x %struct.sp_int], [1 x %struct.sp_int] }
%struct.sp_int = type { i32, i32, [129 x i64] }

; Function Attrs: nounwind uwtable
define i32 @ecc_projective_dbl_point(ptr noundef %P, ptr noundef %R, ptr noundef %a, ptr noundef %modulus, i64 noundef %mp) #0 {
entry:
  %retval = alloca i32, align 4
  %P.addr = alloca ptr, align 8
  %R.addr = alloca ptr, align 8
  %a.addr = alloca ptr, align 8
  %modulus.addr = alloca ptr, align 8
  %mp.addr = alloca i64, align 8
  store ptr %P, ptr %P.addr, align 8
  store ptr %R, ptr %R.addr, align 8
  store ptr %a, ptr %a.addr, align 8
  store ptr %modulus, ptr %modulus.addr, align 8
  store i64 %mp, ptr %mp.addr, align 8
  %0 = load ptr, ptr %P.addr, align 8
  %cmp = icmp eq ptr %0, null
  br i1 %cmp, label %if.then, label %lor.lhs.false

lor.lhs.false:                                    ; preds = %entry
  %1 = load ptr, ptr %R.addr, align 8
  %cmp1 = icmp eq ptr %1, null
  br i1 %cmp1, label %if.then, label %lor.lhs.false2

lor.lhs.false2:                                   ; preds = %lor.lhs.false
  %2 = load ptr, ptr %modulus.addr, align 8
  %cmp3 = icmp eq ptr %2, null
  br i1 %cmp3, label %if.then, label %if.end

if.then:                                          ; preds = %lor.lhs.false2, %lor.lhs.false, %entry
  store i32 -170, ptr %retval, align 4
  br label %return

if.end:                                           ; preds = %lor.lhs.false2
  %3 = load ptr, ptr %P.addr, align 8
  %x = getelementptr inbounds %struct.ecc_point, ptr %3, i32 0, i32 0
  %arraydecay = getelementptr inbounds [1 x %struct.sp_int], ptr %x, i64 0, i64 0
  %4 = load ptr, ptr %modulus.addr, align 8
  %call = call i32 @sp_cmp(ptr noundef %arraydecay, ptr noundef %4)
  %cmp4 = icmp ne i32 %call, -1
  br i1 %cmp4, label %if.then13, label %lor.lhs.false5

lor.lhs.false5:                                   ; preds = %if.end
  %5 = load ptr, ptr %P.addr, align 8
  %y = getelementptr inbounds %struct.ecc_point, ptr %5, i32 0, i32 1
  %arraydecay6 = getelementptr inbounds [1 x %struct.sp_int], ptr %y, i64 0, i64 0
  %6 = load ptr, ptr %modulus.addr, align 8
  %call7 = call i32 @sp_cmp(ptr noundef %arraydecay6, ptr noundef %6)
  %cmp8 = icmp ne i32 %call7, -1
  br i1 %cmp8, label %if.then13, label %lor.lhs.false9

lor.lhs.false9:                                   ; preds = %lor.lhs.false5
  %7 = load ptr, ptr %P.addr, align 8
  %z = getelementptr inbounds %struct.ecc_point, ptr %7, i32 0, i32 2
  %arraydecay10 = getelementptr inbounds [1 x %struct.sp_int], ptr %z, i64 0, i64 0
  %8 = load ptr, ptr %modulus.addr, align 8
  %call11 = call i32 @sp_cmp(ptr noundef %arraydecay10, ptr noundef %8)
  %cmp12 = icmp ne i32 %call11, -1
  br i1 %cmp12, label %if.then13, label %if.end14

if.then13:                                        ; preds = %lor.lhs.false9, %lor.lhs.false5, %if.end
  store i32 -217, ptr %retval, align 4
  br label %return

if.end14:                                         ; preds = %lor.lhs.false9
  %9 = load ptr, ptr %P.addr, align 8
  %10 = load ptr, ptr %R.addr, align 8
  %11 = load ptr, ptr %a.addr, align 8
  %12 = load ptr, ptr %modulus.addr, align 8
  %13 = load i64, ptr %mp.addr, align 8
  %call15 = call i32 @_ecc_projective_dbl_point(ptr noundef %9, ptr noundef %10, ptr noundef %11, ptr noundef %12, i64 noundef %13)
  store i32 %call15, ptr %retval, align 4
  br label %return

return:                                           ; preds = %if.end14, %if.then13, %if.then
  %14 = load i32, ptr %retval, align 4
  ret i32 %14
}