; Function Attrs: nounwind uwtable
define i32 @ecc_projective_dbl_point(ptr noundef %P, ptr noundef %R, ptr noundef readnone captures(none) %a, ptr noundef %modulus, i64 noundef %mp) local_unnamed_addr #2 {
entry:
  %cmp = icmp eq ptr %P, null
  %cmp1 = icmp eq ptr %R, null
  %or.cond = or i1 %cmp, %cmp1
  %cmp3 = icmp eq ptr %modulus, null
  %or.cond1 = or i1 %or.cond, %cmp3
  br i1 %or.cond1, label %return, label %if.end

if.end:                                           ; preds = %entry
  %call = tail call i32 @sp_cmp(ptr noundef nonnull %P, ptr noundef nonnull %modulus) #19
  %cmp4.not = icmp eq i32 %call, -1
  br i1 %cmp4.not, label %lor.lhs.false5, label %return

lor.lhs.false5:                                   ; preds = %if.end
  %y = getelementptr inbounds nuw i8, ptr %P, i64 1040
  %call7 = tail call i32 @sp_cmp(ptr noundef nonnull %y, ptr noundef nonnull %modulus) #19
  %cmp8.not = icmp eq i32 %call7, -1
  br i1 %cmp8.not, label %lor.lhs.false9, label %return

lor.lhs.false9:                                   ; preds = %lor.lhs.false5
  %z = getelementptr inbounds nuw i8, ptr %P, i64 2080
  %call11 = tail call i32 @sp_cmp(ptr noundef nonnull %z, ptr noundef nonnull %modulus) #19
  %cmp12.not = icmp eq i32 %call11, -1
  br i1 %cmp12.not, label %if.end14, label %return

if.end14:                                         ; preds = %lor.lhs.false9
  %call15 = tail call fastcc i32 @_ecc_projective_dbl_point(ptr noundef nonnull %P, ptr noundef nonnull %R, ptr noundef nonnull %modulus, i64 noundef %mp)
  br label %return

return:                                           ; preds = %if.end, %lor.lhs.false5, %lor.lhs.false9, %entry, %if.end14
  %retval.0 = phi i32 [ %call15, %if.end14 ], [ -170, %entry ], [ -217, %lor.lhs.false9 ], [ -217, %lor.lhs.false5 ], [ -217, %if.end ]
  ret i32 %retval.0
}